target datalayout = "e-m:e-p270:32:32-p271:32:32-p272:64:64-i64:64-i128:128-f80:128-n8:16:32:64-S128"
target triple = "x86_64-pc-linux-gnu"

%"struct.std::atomic" = type { %"struct.std::__atomic_base" }
%"struct.std::__atomic_base" = type { i32 }
%"class.tbb::detail::r1::threading_control" = type { %"class.std::unique_ptr.26", %"struct.std::atomic", %"struct.std::atomic" }
%"class.std::unique_ptr.26" = type { %"struct.std::__uniq_ptr_data.27" }
%"struct.std::__uniq_ptr_data.27" = type { %"class.std::__uniq_ptr_impl.28" }
%"class.std::__uniq_ptr_impl.28" = type { %"class.std::tuple.29" }
%"class.std::tuple.29" = type { %"struct.std::_Tuple_impl.30" }
%"struct.std::_Tuple_impl.30" = type { %"struct.std::_Head_base.31" }
%"struct.std::_Head_base.31" = type { ptr }

@_ZN3tbb6detail2r117threading_control19g_threading_controlE = external global ptr, align 8

; Function Attrs: mustprogress nounwind sspstrong uwtable
define linkonce_odr noundef i32 @_ZNSt13__atomic_baseIjEmmEv(ptr noundef nonnull align 4 dereferenceable(4) %0) #3 comdat align 2 {
  %2 = alloca ptr, align 8
  %3 = alloca i32, align 4
  %4 = alloca i32, align 4
  store ptr %0, ptr %2, align 8, !tbaa !122
  %5 = load ptr, ptr %2, align 8
  %6 = getelementptr inbounds nuw %"struct.std::__atomic_base", ptr %5, i32 0, i32 0
  store i32 1, ptr %3, align 4, !tbaa !3
  %7 = load i32, ptr %3, align 4
  %8 = atomicrmw sub ptr %6, i32 %7 seq_cst, align 4
  %9 = sub i32 %8, %7
  store i32 %9, ptr %4, align 4
  %10 = load i32, ptr %4, align 4, !tbaa !3
  ret i32 %10
}

; Function Attrs: mustprogress nounwind sspstrong uwtable
define noundef zeroext i1 @_ZN3tbb6detail2r117threading_control10remove_refEb(ptr noundef nonnull align 8 dereferenceable(16) %0, i1 noundef zeroext %1) #3 align 2 {
  %3 = alloca ptr, align 8
  %4 = alloca i8, align 1
  %5 = alloca i8, align 1
  store ptr %0, ptr %3, align 8, !tbaa !26
  %6 = zext i1 %1 to i8
  store i8 %6, ptr %4, align 1, !tbaa !30
  %7 = load ptr, ptr %3, align 8
  %8 = load i8, ptr %4, align 1, !tbaa !30, !range !32, !noundef !33
  %9 = trunc i8 %8 to i1
  br i1 %9, label %10, label %13

10:                                               ; preds = %2
  %11 = getelementptr inbounds nuw %"class.tbb::detail::r1::threading_control", ptr %7, i32 0, i32 1
  %12 = call noundef i32 @_ZNSt13__atomic_baseIjEmmEv(ptr noundef nonnull align 4 dereferenceable(4) %11) #7
  br label %13

13:                                               ; preds = %10, %2
  call void @llvm.lifetime.start.p0(i64 1, ptr %5) #7
  %14 = getelementptr inbounds nuw %"class.tbb::detail::r1::threading_control", ptr %7, i32 0, i32 2
  %15 = call noundef i32 @_ZNSt13__atomic_baseIjEmmEv(ptr noundef nonnull align 4 dereferenceable(4) %14) #7
  %16 = icmp eq i32 %15, 0
  %17 = zext i1 %16 to i8
  store i8 %17, ptr %5, align 1, !tbaa !30
  %18 = load i8, ptr %5, align 1, !tbaa !30, !range !32, !noundef !33
  %19 = trunc i8 %18 to i1
  br i1 %19, label %20, label %21

20:                                               ; preds = %13
  store ptr null, ptr @_ZN3tbb6detail2r117threading_control19g_threading_controlE, align 8, !tbaa !26
  br label %21

21:                                               ; preds = %20, %13
  %22 = load i8, ptr %5, align 1, !tbaa !30, !range !32, !noundef !33
  %23 = trunc i8 %22 to i1
  call void @llvm.lifetime.end.p0(i64 1, ptr %5) #7
  ret i1 %23
}