; Function Attrs: mustprogress nofree norecurse nounwind sspstrong willreturn memory(write, argmem: readwrite, inaccessiblemem: none) uwtable
define noundef zeroext i1 @_ZN3tbb6detail2r117threading_control10remove_refEb(ptr noundef nonnull align 8 captures(none) dereferenceable(16) %0, i1 noundef zeroext %1) local_unnamed_addr #8 align 2 {
  br i1 %1, label %3, label %6

3:                                                ; preds = %2
  %4 = getelementptr inbounds nuw i8, ptr %0, i64 8
  %5 = atomicrmw sub ptr %4, i32 1 seq_cst, align 4
  br label %6

6:                                                ; preds = %3, %2
  %7 = getelementptr inbounds nuw i8, ptr %0, i64 12
  %8 = atomicrmw sub ptr %7, i32 1 seq_cst, align 4
  %9 = icmp eq i32 %8, 1
  br i1 %9, label %10, label %11

10:                                               ; preds = %6
  store ptr null, ptr @_ZN3tbb6detail2r117threading_control19g_threading_controlE, align 8, !tbaa !149
  br label %11

11:                                               ; preds = %10, %6
  ret i1 %9
}